target datalayout = "e-m:e-p270:32:32-p271:32:32-p272:64:64-i64:64-i128:128-f80:128-n8:16:32:64-S128"
target triple = "x86_64-pc-linux-gnu"

%"class.cv::Rect_" = type { i32, i32, i32, i32 }
%"class.cv::Size_" = type { i32, i32 }
%"class.cv::Point_.52" = type { i32, i32 }
%"struct.cv::MatSize" = type { ptr }
%"struct.cv::MatStep" = type { ptr, [2 x i64] }
%"class.cv::Scalar_" = type { %"class.cv::Vec" }
%"class.cv::Vec" = type { %"class.cv::Matx" }
%"class.cv::Matx" = type { [4 x double] }
%"class.cv::_InputArray" = type { i32, ptr, %"class.cv::Size_" }
%"class.cv::UMat" = type { i32, i32, i32, i32, ptr, i32, ptr, i64, %"struct.cv::MatSize", %"struct.cv::MatStep" }
%"class.cv::_OutputArray" = type { %"class.cv::_InputArray" }

; Function Attrs: inlinehint mustprogress nounwind uwtable
define linkonce_odr hidden void @_ZN2cv4MatxIdLi4ELi1EEC2Ev(ptr noundef nonnull align 8 dereferenceable(32) %0) unnamed_addr #5 comdat align 2 {
  %2 = alloca ptr, align 8
  %3 = alloca i32, align 4
  store ptr %0, ptr %2, align 8, !tbaa !208
  %4 = load ptr, ptr %2, align 8
  call void @llvm.lifetime.start.p0(i64 4, ptr %3) #3
  store i32 0, ptr %3, align 4, !tbaa !67
  br label %5

5:                                                ; preds = %14, %1
  %6 = load i32, ptr %3, align 4, !tbaa !67
  %7 = icmp slt i32 %6, 4
  br i1 %7, label %9, label %8

8:                                                ; preds = %5
  call void @llvm.lifetime.end.p0(i64 4, ptr %3) #3
  br label %17

9:                                                ; preds = %5
  %10 = getelementptr inbounds nuw %"class.cv::Matx", ptr %4, i32 0, i32 0
  %11 = load i32, ptr %3, align 4, !tbaa !67
  %12 = sext i32 %11 to i64
  %13 = getelementptr inbounds [4 x double], ptr %10, i64 0, i64 %12
  store double 0.000000e+00, ptr %13, align 8, !tbaa !127
  br label %14

14:                                               ; preds = %9
  %15 = load i32, ptr %3, align 4, !tbaa !67
  %16 = add nsw i32 %15, 1
  store i32 %16, ptr %3, align 4, !tbaa !67
  br label %5, !llvm.loop !210

17:                                               ; preds = %8
  ret void
}

; Function Attrs: inlinehint mustprogress nounwind uwtable
define linkonce_odr hidden void @_ZN2cv6Point_IiEC2Eii(ptr noundef nonnull align 4 dereferenceable(8) %0, i32 noundef %1, i32 noundef %2) unnamed_addr #5 comdat align 2 {
  %4 = alloca ptr, align 8
  %5 = alloca i32, align 4
  %6 = alloca i32, align 4
  store ptr %0, ptr %4, align 8, !tbaa !114
  store i32 %1, ptr %5, align 4, !tbaa !67
  store i32 %2, ptr %6, align 4, !tbaa !67
  %7 = load ptr, ptr %4, align 8
  %8 = getelementptr inbounds nuw %"class.cv::Point_.52", ptr %7, i32 0, i32 0
  %9 = load i32, ptr %5, align 4, !tbaa !67
  store i32 %9, ptr %8, align 4, !tbaa !108
  %10 = getelementptr inbounds nuw %"class.cv::Point_.52", ptr %7, i32 0, i32 1
  %11 = load i32, ptr %6, align 4, !tbaa !67
  store i32 %11, ptr %10, align 4, !tbaa !110
  ret void
}

; Function Attrs: inlinehint mustprogress uwtable
define linkonce_odr hidden void @_ZN2cv3VecIdLi4EEC2Ev(ptr noundef nonnull align 8 dereferenceable(32) %0) unnamed_addr #7 comdat align 2 {
  %2 = alloca ptr, align 8
  store ptr %0, ptr %2, align 8, !tbaa !206
  %3 = load ptr, ptr %2, align 8
  call void @_ZN2cv4MatxIdLi4ELi1EEC2Ev(ptr noundef nonnull align 8 dereferenceable(32) %3)
  ret void
}

; Function Attrs: inlinehint mustprogress nounwind uwtable
define linkonce_odr hidden void @_ZN2cv5Size_IiEC2Ev(ptr noundef nonnull align 4 dereferenceable(8) %0) unnamed_addr #5 comdat align 2 {
  %2 = alloca ptr, align 8
  store ptr %0, ptr %2, align 8, !tbaa !76
  %3 = load ptr, ptr %2, align 8
  %4 = getelementptr inbounds nuw %"class.cv::Size_", ptr %3, i32 0, i32 0
  store i32 0, ptr %4, align 4, !tbaa !78
  %5 = getelementptr inbounds nuw %"class.cv::Size_", ptr %3, i32 0, i32 1
  store i32 0, ptr %5, align 4, !tbaa !79
  ret void
}

; Function Attrs: inlinehint mustprogress nounwind uwtable
define linkonce_odr hidden void @_ZN2cv11_InputArray4initEiPKv(ptr noundef nonnull align 8 dereferenceable(24) %0, i32 noundef %1, ptr noundef %2) #5 comdat align 2 {
  %4 = alloca ptr, align 8
  %5 = alloca i32, align 4
  %6 = alloca ptr, align 8
  store ptr %0, ptr %4, align 8, !tbaa !59
  store i32 %1, ptr %5, align 4, !tbaa !67
  store ptr %2, ptr %6, align 8, !tbaa !184
  %7 = load ptr, ptr %4, align 8
  %8 = load i32, ptr %5, align 4, !tbaa !67
  %9 = getelementptr inbounds nuw %"class.cv::_InputArray", ptr %7, i32 0, i32 0
  store i32 %8, ptr %9, align 8, !tbaa !185
  %10 = load ptr, ptr %6, align 8, !tbaa !184
  %11 = getelementptr inbounds nuw %"class.cv::_InputArray", ptr %7, i32 0, i32 1
  store ptr %10, ptr %11, align 8, !tbaa !73
  ret void
}

; Function Attrs: inlinehint mustprogress uwtable
define linkonce_odr hidden void @_ZN2cv11_InputArrayC2Ev(ptr noundef nonnull align 8 dereferenceable(24) %0) unnamed_addr #7 comdat align 2 {
  %2 = alloca ptr, align 8
  store ptr %0, ptr %2, align 8, !tbaa !59
  %3 = load ptr, ptr %2, align 8
  %4 = getelementptr inbounds nuw %"class.cv::_InputArray", ptr %3, i32 0, i32 2
  call void @_ZN2cv5Size_IiEC2Ev(ptr noundef nonnull align 4 dereferenceable(8) %4)
  call void @_ZN2cv11_InputArray4initEiPKv(ptr noundef nonnull align 8 dereferenceable(24) %3, i32 noundef 0, ptr noundef null)
  ret void
}

; Function Attrs: inlinehint mustprogress uwtable
define linkonce_odr hidden i64 @_ZNK2cv5Rect_IiE2tlEv(ptr noundef nonnull align 4 dereferenceable(16) %0) #7 comdat align 2 {
  %2 = alloca %"class.cv::Point_.52", align 4
  %3 = alloca ptr, align 8
  store ptr %0, ptr %3, align 8, !tbaa !116
  %4 = load ptr, ptr %3, align 8
  %5 = getelementptr inbounds nuw %"class.cv::Rect_", ptr %4, i32 0, i32 0
  %6 = load i32, ptr %5, align 4, !tbaa !118
  %7 = getelementptr inbounds nuw %"class.cv::Rect_", ptr %4, i32 0, i32 1
  %8 = load i32, ptr %7, align 4, !tbaa !120
  call void @_ZN2cv6Point_IiEC2Eii(ptr noundef nonnull align 4 dereferenceable(8) %2, i32 noundef %6, i32 noundef %8)
  %9 = load i64, ptr %2, align 4
  ret i64 %9
}

; Function Attrs: inlinehint mustprogress uwtable
define linkonce_odr hidden void @_ZN2cv7Scalar_IdEC2Ev(ptr noundef nonnull align 8 dereferenceable(32) %0) unnamed_addr #7 comdat align 2 {
  %2 = alloca ptr, align 8
  store ptr %0, ptr %2, align 8, !tbaa !125
  %3 = load ptr, ptr %2, align 8
  call void @_ZN2cv3VecIdLi4EEC2Ev(ptr noundef nonnull align 8 dereferenceable(32) %3)
  %4 = getelementptr inbounds nuw %"class.cv::Matx", ptr %3, i32 0, i32 0
  %5 = getelementptr inbounds [4 x double], ptr %4, i64 0, i64 3
  store double 0.000000e+00, ptr %5, align 8, !tbaa !127
  %6 = getelementptr inbounds nuw %"class.cv::Matx", ptr %3, i32 0, i32 0
  %7 = getelementptr inbounds [4 x double], ptr %6, i64 0, i64 2
  store double 0.000000e+00, ptr %7, align 8, !tbaa !127
  %8 = getelementptr inbounds nuw %"class.cv::Matx", ptr %3, i32 0, i32 0
  %9 = getelementptr inbounds [4 x double], ptr %8, i64 0, i64 1
  store double 0.000000e+00, ptr %9, align 8, !tbaa !127
  %10 = getelementptr inbounds nuw %"class.cv::Matx", ptr %3, i32 0, i32 0
  %11 = getelementptr inbounds [4 x double], ptr %10, i64 0, i64 0
  store double 0.000000e+00, ptr %11, align 8, !tbaa !127
  ret void
}

; Function Attrs: inlinehint mustprogress uwtable
define linkonce_odr hidden void @_ZN2cv11_InputArrayC2ERKNS_4UMatE(ptr noundef nonnull align 8 dereferenceable(24) %0, ptr noundef nonnull align 8 dereferenceable(80) %1) unnamed_addr #7 comdat align 2 {
  %3 = alloca ptr, align 8
  %4 = alloca ptr, align 8
  store ptr %0, ptr %3, align 8, !tbaa !59
  store ptr %1, ptr %4, align 8, !tbaa !123
  %5 = load ptr, ptr %3, align 8
  %6 = getelementptr inbounds nuw %"class.cv::_InputArray", ptr %5, i32 0, i32 2
  call void @_ZN2cv5Size_IiEC2Ev(ptr noundef nonnull align 4 dereferenceable(8) %6)
  %7 = load ptr, ptr %4, align 8, !tbaa !123
  call void @_ZN2cv11_InputArray4initEiPKv(ptr noundef nonnull align 8 dereferenceable(24) %5, i32 noundef 17432576, ptr noundef %7)
  ret void
}

; Function Attrs: inlinehint mustprogress nounwind uwtable
define linkonce_odr hidden void @_ZN2cv11_InputArrayD2Ev(ptr noundef nonnull align 8 dereferenceable(24) %0) unnamed_addr #5 comdat align 2 {
  %2 = alloca ptr, align 8
  store ptr %0, ptr %2, align 8, !tbaa !59
  ret void
}

; Function Attrs: inlinehint mustprogress uwtable
define linkonce_odr hidden void @_ZN2cv12_OutputArrayC2ERNS_4UMatE(ptr noundef nonnull align 8 dereferenceable(24) %0, ptr noundef nonnull align 8 dereferenceable(80) %1) unnamed_addr #7 comdat align 2 personality ptr @__gxx_personality_v0 {
  %3 = alloca ptr, align 8
  %4 = alloca ptr, align 8
  %5 = alloca ptr, align 8
  %6 = alloca i32, align 4
  store ptr %0, ptr %3, align 8, !tbaa !64
  store ptr %1, ptr %4, align 8, !tbaa !123
  %7 = load ptr, ptr %3, align 8
  call void @_ZN2cv11_InputArrayC2Ev(ptr noundef nonnull align 8 dereferenceable(24) %7)
  %8 = load ptr, ptr %4, align 8, !tbaa !123
  invoke void @_ZN2cv11_InputArray4initEiPKv(ptr noundef nonnull align 8 dereferenceable(24) %7, i32 noundef 34209792, ptr noundef %8)
          to label %9 unwind label %10

9:                                                ; preds = %2
  ret void

10:                                               ; preds = %2
  %11 = landingpad { ptr, i32 }
          cleanup
  %12 = extractvalue { ptr, i32 } %11, 0
  store ptr %12, ptr %5, align 8
  %13 = extractvalue { ptr, i32 } %11, 1
  store i32 %13, ptr %6, align 4
  call void @_ZN2cv11_InputArrayD2Ev(ptr noundef nonnull align 8 dereferenceable(24) %7) #3
  br label %14

14:                                               ; preds = %10
  %15 = load ptr, ptr %5, align 8
  %16 = load i32, ptr %6, align 4
  %17 = insertvalue { ptr, i32 } poison, ptr %15, 0
  %18 = insertvalue { ptr, i32 } %17, i32 %16, 1
  resume { ptr, i32 } %18
}

; Function Attrs: mustprogress uwtable
define i64 @_ZN2cv6detail17CylindricalWarper4warpERKNS_11_InputArrayES4_S4_iiRKNS_12_OutputArrayE(ptr noundef nonnull align 8 dereferenceable(168) %0, ptr noundef nonnull align 8 dereferenceable(24) %1, ptr noundef nonnull align 8 dereferenceable(24) %2, ptr noundef nonnull align 8 dereferenceable(24) %3, i32 noundef %4, i32 noundef %5, ptr noundef nonnull align 8 dereferenceable(24) %6) unnamed_addr #4 align 2 personality ptr @__gxx_personality_v0 {
  %8 = alloca %"class.cv::Point_.52", align 4
  %9 = alloca ptr, align 8
  %10 = alloca ptr, align 8
  %11 = alloca ptr, align 8
  %12 = alloca ptr, align 8
  %13 = alloca i32, align 4
  %14 = alloca i32, align 4
  %15 = alloca ptr, align 8
  %16 = alloca %"class.cv::UMat", align 8
  %17 = alloca %"class.cv::UMat", align 8
  %18 = alloca %"class.cv::Rect_", align 4
  %19 = alloca %"class.cv::Size_", align 4
  %20 = alloca ptr, align 8
  %21 = alloca i32, align 4
  %22 = alloca %"class.cv::_OutputArray", align 8
  %23 = alloca %"class.cv::_OutputArray", align 8
  %24 = alloca %"class.cv::_InputArray", align 8
  %25 = alloca %"class.cv::_InputArray", align 8
  %26 = alloca %"class.cv::Scalar_", align 8
  store ptr %0, ptr %9, align 8, !tbaa !151
  store ptr %1, ptr %10, align 8, !tbaa !59
  store ptr %2, ptr %11, align 8, !tbaa !59
  store ptr %3, ptr %12, align 8, !tbaa !59
  store i32 %4, ptr %13, align 4, !tbaa !67
  store i32 %5, ptr %14, align 4, !tbaa !67
  store ptr %6, ptr %15, align 8, !tbaa !64
  %27 = load ptr, ptr %9, align 8
  call void @llvm.lifetime.start.p0(i64 80, ptr %16) #3
  call void @_ZN2cv4UMatC1ENS_14UMatUsageFlagsE(ptr noundef nonnull align 8 dereferenceable(80) %16, i32 noundef 0) #3
  call void @llvm.lifetime.start.p0(i64 80, ptr %17) #3
  call void @_ZN2cv4UMatC1ENS_14UMatUsageFlagsE(ptr noundef nonnull align 8 dereferenceable(80) %17, i32 noundef 0) #3
  call void @llvm.lifetime.start.p0(i64 16, ptr %18) #3
  %28 = load ptr, ptr %10, align 8, !tbaa !59
  %29 = invoke i64 @_ZNK2cv11_InputArray4sizeEi(ptr noundef nonnull align 8 dereferenceable(24) %28, i32 noundef -1)
          to label %30 unwind label %67

30:                                               ; preds = %7
  store i64 %29, ptr %19, align 4
  %31 = load ptr, ptr %11, align 8, !tbaa !59
  %32 = load ptr, ptr %12, align 8, !tbaa !59
  call void @llvm.lifetime.start.p0(i64 24, ptr %22) #3
  invoke void @_ZN2cv12_OutputArrayC2ERNS_4UMatE(ptr noundef nonnull align 8 dereferenceable(24) %22, ptr noundef nonnull align 8 dereferenceable(80) %16)
          to label %33 unwind label %71

33:                                               ; preds = %30
  call void @llvm.lifetime.start.p0(i64 24, ptr %23) #3
  invoke void @_ZN2cv12_OutputArrayC2ERNS_4UMatE(ptr noundef nonnull align 8 dereferenceable(24) %23, ptr noundef nonnull align 8 dereferenceable(80) %17)
          to label %34 unwind label %75

34:                                               ; preds = %33
  %35 = load i64, ptr %19, align 4
  %36 = load ptr, ptr %27, align 8, !tbaa !12
  %37 = getelementptr inbounds ptr, ptr %36, i64 4
  %38 = load ptr, ptr %37, align 8
  %39 = invoke { i64, i64 } %38(ptr noundef nonnull align 8 dereferenceable(168) %27, i64 %35, ptr noundef nonnull align 8 dereferenceable(24) %31, ptr noundef nonnull align 8 dereferenceable(24) %32, ptr noundef nonnull align 8 dereferenceable(24) %22, ptr noundef nonnull align 8 dereferenceable(24) %23)
          to label %40 unwind label %79

40:                                               ; preds = %34
  %41 = getelementptr inbounds nuw { i64, i64 }, ptr %18, i32 0, i32 0
  %42 = extractvalue { i64, i64 } %39, 0
  store i64 %42, ptr %41, align 4
  %43 = getelementptr inbounds nuw { i64, i64 }, ptr %18, i32 0, i32 1
  %44 = extractvalue { i64, i64 } %39, 1
  store i64 %44, ptr %43, align 4
  call void @_ZN2cv11_InputArrayD2Ev(ptr noundef nonnull align 8 dereferenceable(24) %23) #3
  call void @llvm.lifetime.end.p0(i64 24, ptr %23) #3
  call void @_ZN2cv11_InputArrayD2Ev(ptr noundef nonnull align 8 dereferenceable(24) %22) #3
  call void @llvm.lifetime.end.p0(i64 24, ptr %22) #3
  %45 = load ptr, ptr %15, align 8, !tbaa !64
  %46 = getelementptr inbounds nuw %"class.cv::Rect_", ptr %18, i32 0, i32 3
  %47 = load i32, ptr %46, align 4, !tbaa !122
  %48 = add nsw i32 %47, 1
  %49 = getelementptr inbounds nuw %"class.cv::Rect_", ptr %18, i32 0, i32 2
  %50 = load i32, ptr %49, align 4, !tbaa !121
  %51 = add nsw i32 %50, 1
  %52 = load ptr, ptr %10, align 8, !tbaa !59
  %53 = invoke noundef i32 @_ZNK2cv11_InputArray4typeEi(ptr noundef nonnull align 8 dereferenceable(24) %52, i32 noundef -1)
          to label %54 unwind label %67

54:                                               ; preds = %40
  invoke void @_ZNK2cv12_OutputArray6createEiiiibNS0_9DepthMaskE(ptr noundef nonnull align 8 dereferenceable(24) %45, i32 noundef %48, i32 noundef %51, i32 noundef %53, i32 noundef -1, i1 noundef zeroext false, i32 noundef 0)
          to label %55 unwind label %67

55:                                               ; preds = %54
  %56 = load ptr, ptr %10, align 8, !tbaa !59
  %57 = load ptr, ptr %15, align 8, !tbaa !64
  call void @llvm.lifetime.start.p0(i64 24, ptr %24) #3
  invoke void @_ZN2cv11_InputArrayC2ERKNS_4UMatE(ptr noundef nonnull align 8 dereferenceable(24) %24, ptr noundef nonnull align 8 dereferenceable(80) %16)
          to label %58 unwind label %85

58:                                               ; preds = %55
  call void @llvm.lifetime.start.p0(i64 24, ptr %25) #3
  invoke void @_ZN2cv11_InputArrayC2ERKNS_4UMatE(ptr noundef nonnull align 8 dereferenceable(24) %25, ptr noundef nonnull align 8 dereferenceable(80) %17)
          to label %59 unwind label %89

59:                                               ; preds = %58
  %60 = load i32, ptr %13, align 4, !tbaa !67
  %61 = load i32, ptr %14, align 4, !tbaa !67
  call void @llvm.lifetime.start.p0(i64 32, ptr %26) #3
  invoke void @_ZN2cv7Scalar_IdEC2Ev(ptr noundef nonnull align 8 dereferenceable(32) %26)
          to label %62 unwind label %93

62:                                               ; preds = %59
  invoke void @_ZN2cv5remapERKNS_11_InputArrayERKNS_12_OutputArrayES2_S2_iiRKNS_7Scalar_IdEE(ptr noundef nonnull align 8 dereferenceable(24) %56, ptr noundef nonnull align 8 dereferenceable(24) %57, ptr noundef nonnull align 8 dereferenceable(24) %24, ptr noundef nonnull align 8 dereferenceable(24) %25, i32 noundef %60, i32 noundef %61, ptr noundef nonnull align 8 dereferenceable(32) %26)
          to label %63 unwind label %93

63:                                               ; preds = %62
  call void @llvm.lifetime.end.p0(i64 32, ptr %26) #3
  call void @_ZN2cv11_InputArrayD2Ev(ptr noundef nonnull align 8 dereferenceable(24) %25) #3
  call void @llvm.lifetime.end.p0(i64 24, ptr %25) #3
  call void @_ZN2cv11_InputArrayD2Ev(ptr noundef nonnull align 8 dereferenceable(24) %24) #3
  call void @llvm.lifetime.end.p0(i64 24, ptr %24) #3
  %64 = invoke i64 @_ZNK2cv5Rect_IiE2tlEv(ptr noundef nonnull align 4 dereferenceable(16) %18)
          to label %65 unwind label %67

65:                                               ; preds = %63
  store i64 %64, ptr %8, align 4
  call void @llvm.lifetime.end.p0(i64 16, ptr %18) #3
  call void @_ZN2cv4UMatD1Ev(ptr noundef nonnull align 8 dereferenceable(80) %17) #3
  call void @llvm.lifetime.end.p0(i64 80, ptr %17) #3
  call void @_ZN2cv4UMatD1Ev(ptr noundef nonnull align 8 dereferenceable(80) %16) #3
  call void @llvm.lifetime.end.p0(i64 80, ptr %16) #3
  %66 = load i64, ptr %8, align 4
  ret i64 %66

67:                                               ; preds = %63, %54, %40, %7
  %68 = landingpad { ptr, i32 }
          cleanup
  %69 = extractvalue { ptr, i32 } %68, 0
  store ptr %69, ptr %20, align 8
  %70 = extractvalue { ptr, i32 } %68, 1
  store i32 %70, ptr %21, align 4
  br label %99

71:                                               ; preds = %30
  %72 = landingpad { ptr, i32 }
          cleanup
  %73 = extractvalue { ptr, i32 } %72, 0
  store ptr %73, ptr %20, align 8
  %74 = extractvalue { ptr, i32 } %72, 1
  store i32 %74, ptr %21, align 4
  br label %84

75:                                               ; preds = %33
  %76 = landingpad { ptr, i32 }
          cleanup
  %77 = extractvalue { ptr, i32 } %76, 0
  store ptr %77, ptr %20, align 8
  %78 = extractvalue { ptr, i32 } %76, 1
  store i32 %78, ptr %21, align 4
  br label %83

79:                                               ; preds = %34
  %80 = landingpad { ptr, i32 }
          cleanup
  %81 = extractvalue { ptr, i32 } %80, 0
  store ptr %81, ptr %20, align 8
  %82 = extractvalue { ptr, i32 } %80, 1
  store i32 %82, ptr %21, align 4
  call void @_ZN2cv11_InputArrayD2Ev(ptr noundef nonnull align 8 dereferenceable(24) %23) #3
  br label %83

83:                                               ; preds = %79, %75
  call void @llvm.lifetime.end.p0(i64 24, ptr %23) #3
  call void @_ZN2cv11_InputArrayD2Ev(ptr noundef nonnull align 8 dereferenceable(24) %22) #3
  br label %84

84:                                               ; preds = %83, %71
  call void @llvm.lifetime.end.p0(i64 24, ptr %22) #3
  br label %99

85:                                               ; preds = %55
  %86 = landingpad { ptr, i32 }
          cleanup
  %87 = extractvalue { ptr, i32 } %86, 0
  store ptr %87, ptr %20, align 8
  %88 = extractvalue { ptr, i32 } %86, 1
  store i32 %88, ptr %21, align 4
  br label %98

89:                                               ; preds = %58
  %90 = landingpad { ptr, i32 }
          cleanup
  %91 = extractvalue { ptr, i32 } %90, 0
  store ptr %91, ptr %20, align 8
  %92 = extractvalue { ptr, i32 } %90, 1
  store i32 %92, ptr %21, align 4
  br label %97

93:                                               ; preds = %62, %59
  %94 = landingpad { ptr, i32 }
          cleanup
  %95 = extractvalue { ptr, i32 } %94, 0
  store ptr %95, ptr %20, align 8
  %96 = extractvalue { ptr, i32 } %94, 1
  store i32 %96, ptr %21, align 4
  call void @llvm.lifetime.end.p0(i64 32, ptr %26) #3
  call void @_ZN2cv11_InputArrayD2Ev(ptr noundef nonnull align 8 dereferenceable(24) %25) #3
  br label %97

97:                                               ; preds = %93, %89
  call void @llvm.lifetime.end.p0(i64 24, ptr %25) #3
  call void @_ZN2cv11_InputArrayD2Ev(ptr noundef nonnull align 8 dereferenceable(24) %24) #3
  br label %98

98:                                               ; preds = %97, %85
  call void @llvm.lifetime.end.p0(i64 24, ptr %24) #3
  br label %99

99:                                               ; preds = %98, %84, %67
  call void @llvm.lifetime.end.p0(i64 16, ptr %18) #3
  call void @_ZN2cv4UMatD1Ev(ptr noundef nonnull align 8 dereferenceable(80) %17) #3
  call void @llvm.lifetime.end.p0(i64 80, ptr %17) #3
  call void @_ZN2cv4UMatD1Ev(ptr noundef nonnull align 8 dereferenceable(80) %16) #3
  call void @llvm.lifetime.end.p0(i64 80, ptr %16) #3
  br label %100

100:                                              ; preds = %99
  %101 = load ptr, ptr %20, align 8
  %102 = load i32, ptr %21, align 4
  %103 = insertvalue { ptr, i32 } poison, ptr %101, 0
  %104 = insertvalue { ptr, i32 } %103, i32 %102, 1
  resume { ptr, i32 } %104
}